target datalayout = "e-m:e-p270:32:32-p271:32:32-p272:64:64-i64:64-i128:128-f80:128-n8:16:32:64-S128"
target triple = "x86_64-pc-linux-gnu"

%struct.binascii_state = type { ptr, ptr }

@PyExc_ValueError = external global ptr, align 8
@.str.41 = private unnamed_addr constant [15 x i8] c"binascii.Error\00", align 1
@.str.42 = private unnamed_addr constant [6 x i8] c"Error\00", align 1
@.str.43 = private unnamed_addr constant [20 x i8] c"binascii.Incomplete\00", align 1
@.str.44 = private unnamed_addr constant [11 x i8] c"Incomplete\00", align 1

; Function Attrs: nounwind uwtable
define internal i32 @binascii_exec(ptr noundef %0) #0 {
  %2 = alloca i32, align 4
  %3 = alloca ptr, align 8
  %4 = alloca ptr, align 8
  %5 = alloca i32, align 4
  store ptr %0, ptr %3, align 8, !tbaa !3
  call void @llvm.lifetime.start.p0(i64 8, ptr %4) #7
  %6 = load ptr, ptr %3, align 8, !tbaa !3
  %7 = call ptr @PyModule_GetState(ptr noundef %6)
  store ptr %7, ptr %4, align 8, !tbaa !9
  %8 = load ptr, ptr %4, align 8, !tbaa !9
  %9 = icmp eq ptr %8, null
  br i1 %9, label %10, label %11

10:                                               ; preds = %1
  store i32 -1, ptr %2, align 4
  store i32 1, ptr %5, align 4
  br label %35

11:                                               ; preds = %1
  %12 = load ptr, ptr @PyExc_ValueError, align 8, !tbaa !3
  %13 = call ptr @PyErr_NewException(ptr noundef @.str.41, ptr noundef %12, ptr noundef null)
  %14 = load ptr, ptr %4, align 8, !tbaa !9
  %15 = getelementptr inbounds nuw %struct.binascii_state, ptr %14, i32 0, i32 0
  store ptr %13, ptr %15, align 8, !tbaa !11
  %16 = load ptr, ptr %3, align 8, !tbaa !3
  %17 = load ptr, ptr %4, align 8, !tbaa !9
  %18 = getelementptr inbounds nuw %struct.binascii_state, ptr %17, i32 0, i32 0
  %19 = load ptr, ptr %18, align 8, !tbaa !11
  %20 = call i32 @PyModule_AddObjectRef(ptr noundef %16, ptr noundef @.str.42, ptr noundef %19)
  %21 = icmp slt i32 %20, 0
  br i1 %21, label %22, label %23

22:                                               ; preds = %11
  store i32 -1, ptr %2, align 4
  store i32 1, ptr %5, align 4
  br label %35

23:                                               ; preds = %11
  %24 = call ptr @PyErr_NewException(ptr noundef @.str.43, ptr noundef null, ptr noundef null)
  %25 = load ptr, ptr %4, align 8, !tbaa !9
  %26 = getelementptr inbounds nuw %struct.binascii_state, ptr %25, i32 0, i32 1
  store ptr %24, ptr %26, align 8, !tbaa !15
  %27 = load ptr, ptr %3, align 8, !tbaa !3
  %28 = load ptr, ptr %4, align 8, !tbaa !9
  %29 = getelementptr inbounds nuw %struct.binascii_state, ptr %28, i32 0, i32 1
  %30 = load ptr, ptr %29, align 8, !tbaa !15
  %31 = call i32 @PyModule_AddObjectRef(ptr noundef %27, ptr noundef @.str.44, ptr noundef %30)
  %32 = icmp slt i32 %31, 0
  br i1 %32, label %33, label %34

33:                                               ; preds = %23
  store i32 -1, ptr %2, align 4
  store i32 1, ptr %5, align 4
  br label %35

34:                                               ; preds = %23
  store i32 0, ptr %2, align 4
  store i32 1, ptr %5, align 4
  br label %35

35:                                               ; preds = %34, %33, %22, %10
  call void @llvm.lifetime.end.p0(i64 8, ptr %4) #7
  %36 = load i32, ptr %2, align 4
  ret i32 %36
}