; Function Attrs: nounwind uwtable
define internal range(i32 -1, 1) i32 @binascii_exec(ptr noundef %0) #0 {
  %2 = tail call ptr @PyModule_GetState(ptr noundef %0) #5
  %3 = icmp eq ptr %2, null
  br i1 %3, label %13, label %4

4:                                                ; preds = %1
  %5 = load ptr, ptr @PyExc_ValueError, align 8, !tbaa !10
  %6 = tail call ptr @PyErr_NewException(ptr noundef nonnull @.str.41, ptr noundef %5, ptr noundef null) #5
  store ptr %6, ptr %2, align 8, !tbaa !3
  %7 = tail call i32 @PyModule_AddObjectRef(ptr noundef %0, ptr noundef nonnull @.str.42, ptr noundef %6) #5
  %8 = icmp slt i32 %7, 0
  br i1 %8, label %13, label %9

9:                                                ; preds = %4
  %10 = tail call ptr @PyErr_NewException(ptr noundef nonnull @.str.43, ptr noundef null, ptr noundef null) #5
  %11 = getelementptr inbounds nuw i8, ptr %2, i64 8
  store ptr %10, ptr %11, align 8, !tbaa !9
  %12 = tail call i32 @PyModule_AddObjectRef(ptr noundef %0, ptr noundef nonnull @.str.44, ptr noundef %10) #5
  %.lobit = ashr i32 %12, 31
  br label %13

13:                                               ; preds = %9, %4, %1
  %.0 = phi i32 [ -1, %1 ], [ -1, %4 ], [ %.lobit, %9 ]
  ret i32 %.0
}